; Function Attrs: nounwind uwtable
define internal ptr @left_adjust_char_head(ptr noundef readnone captures(address) %0, ptr noundef %1) #2 {
  %.not = icmp ugt ptr %1, %0
  br i1 %.not, label %3, label %27

3:                                                ; preds = %2
  %4 = load i8, ptr %1, align 1, !tbaa !4
  %5 = zext i8 %4 to i64
  %6 = getelementptr inbounds nuw [256 x i8], ptr @SJIS_CAN_BE_TRAIL_TABLE, i64 0, i64 %5
  %7 = load i8, ptr %6, align 1, !tbaa !4
  %.not24 = icmp eq i8 %7, 0
  br i1 %.not24, label %.loopexit, label %.preheader

.preheader:                                       ; preds = %3, %9
  %.1 = phi ptr [ %10, %9 ], [ %1, %3 ]
  %8 = icmp ugt ptr %.1, %0
  br i1 %8, label %9, label %.loopexit

9:                                                ; preds = %.preheader
  %10 = getelementptr inbounds i8, ptr %.1, i64 -1
  %11 = load i8, ptr %10, align 1, !tbaa !4
  %12 = zext i8 %11 to i64
  %13 = getelementptr inbounds nuw [256 x i32], ptr @EncLen_SJIS, i64 0, i64 %12
  %14 = load i32, ptr %13, align 4, !tbaa !7
  %15 = icmp sgt i32 %14, 1
  br i1 %15, label %.preheader, label %.loopexit, !llvm.loop !23

.loopexit:                                        ; preds = %9, %.preheader, %3
  %.019 = phi ptr [ %1, %3 ], [ %.1, %.preheader ], [ %.1, %9 ]
  %16 = load ptr, ptr @OnigEncodingSJIS, align 8, !tbaa !9
  %17 = tail call i32 %16(ptr noundef nonnull %.019) #8
  %18 = sext i32 %17 to i64
  %19 = getelementptr inbounds i8, ptr %.019, i64 %18
  %20 = icmp ugt ptr %19, %1
  br i1 %20, label %27, label %21

21:                                               ; preds = %.loopexit
  %22 = ptrtoint ptr %1 to i64
  %23 = ptrtoint ptr %19 to i64
  %24 = sub i64 %22, %23
  %25 = and i64 %24, -2
  %26 = getelementptr inbounds i8, ptr %19, i64 %25
  br label %27

27:                                               ; preds = %.loopexit, %2, %21
  %.0 = phi ptr [ %26, %21 ], [ %1, %2 ], [ %.019, %.loopexit ]
  ret ptr %.0
}